target datalayout = "e-m:e-p270:32:32-p271:32:32-p272:64:64-i64:64-i128:128-f80:128-n8:16:32:64-S128"
target triple = "x86_64-pc-linux-gnu"

%"class.smt::qi_queue" = type { ptr, ptr, ptr, ptr, %"struct.smt::qi_queue_stats", %"class.smt::checker", %class.obj_ref, %class.obj_ref, %class.cost_parser, %class.cost_evaluator, %class.cached_var_subst, %class.svector.37, double, %class.svector.39, %class.svector.39, %class.ref_vector, %class.svector.29, %class.svector.41 }
%"struct.smt::qi_queue_stats" = type { i32, i32 }
%"class.smt::checker" = type { ptr, ptr, [2 x %class.obj_map], %class.obj_map.0, i32, ptr }
%class.obj_map = type { %class.core_hashtable }
%class.core_hashtable = type <{ ptr, i32, i32, i32, [4 x i8] }>
%class.obj_map.0 = type { %class.core_hashtable.1 }
%class.core_hashtable.1 = type <{ ptr, i32, i32, i32, [4 x i8] }>
%class.obj_ref = type { ptr, ptr }
%class.cost_parser = type { %class.simple_parser, %class.arith_util, %class.ref_vector.11 }
%class.simple_parser = type { ptr, ptr, %class.map, %class.map.7, %class.ref_vector }
%class.map = type { %class.table2map }
%class.table2map = type { %class.core_hashtable.5 }
%class.core_hashtable.5 = type <{ ptr, i32, i32, i32, [4 x i8] }>
%class.map.7 = type { %class.table2map.8 }
%class.table2map.8 = type { %class.core_hashtable.9 }
%class.core_hashtable.9 = type <{ ptr, i32, i32, i32, [4 x i8] }>
%class.arith_util = type { ptr, ptr }
%class.ref_vector.11 = type { %class.ref_vector_core.12 }
%class.ref_vector_core.12 = type { %class.ref_manager_wrapper.13, %class.ptr_vector.14 }
%class.ref_manager_wrapper.13 = type { ptr }
%class.ptr_vector.14 = type { %class.vector.15 }
%class.vector.15 = type { ptr }
%class.cost_evaluator = type { ptr, %class.arith_util, i32, ptr }
%class.cached_var_subst = type { ptr, %class.var_subst, %class.ref_vector, %class.map.31, %class.region, %class.ptr_vector.35, ptr }
%class.var_subst = type { %class.beta_reducer, i8, [7 x i8] }
%class.beta_reducer = type <{ %class.rewriter_tpl, [8 x i8] }>
%class.rewriter_tpl = type { %class.rewriter_core, ptr, i32, %class.ptr_vector, %class.var_shifter, %class.inv_var_shifter, %class.obj_ref, %class.obj_ref.28, %class.obj_ref.28, %class.svector.29 }
%class.rewriter_core = type { ptr, ptr, i8, i8, %class.ptr_vector.16, ptr, %class.svector, %class.ref_vector, %class.ptr_vector.16, ptr, %class.ref_vector.19, %class.obj_hashtable, ptr, i32, %class.svector.26 }
%class.svector = type { %class.vector.18 }
%class.vector.18 = type { ptr }
%class.ptr_vector.16 = type { %class.vector.17 }
%class.vector.17 = type { ptr }
%class.ref_vector.19 = type { %class.ref_vector_core.20 }
%class.ref_vector_core.20 = type { %class.ref_manager_wrapper.21, %class.ptr_vector.22 }
%class.ref_manager_wrapper.21 = type { ptr }
%class.ptr_vector.22 = type { %class.vector.23 }
%class.vector.23 = type { ptr }
%class.obj_hashtable = type { %class.core_hashtable.base.25, [4 x i8] }
%class.core_hashtable.base.25 = type <{ ptr, i32, i32, i32 }>
%class.svector.26 = type { %class.vector.27 }
%class.vector.27 = type { ptr }
%class.ptr_vector = type { %class.vector }
%class.vector = type { ptr }
%class.var_shifter = type <{ %class.var_shifter_core, i32, i32, i32, [4 x i8] }>
%class.var_shifter_core = type { %class.rewriter_core }
%class.inv_var_shifter = type <{ %class.var_shifter_core, i32, [4 x i8] }>
%class.obj_ref.28 = type { ptr, ptr }
%class.map.31 = type { %class.table2map.32 }
%class.table2map.32 = type { %class.core_hashtable.33 }
%class.core_hashtable.33 = type <{ ptr, i32, i32, i32, [4 x i8] }>
%class.region = type { ptr, ptr, ptr, ptr, ptr }
%class.ptr_vector.35 = type { %class.vector.36 }
%class.vector.36 = type { ptr }
%class.svector.37 = type { %class.vector.38 }
%class.vector.38 = type { ptr }
%class.svector.39 = type { %class.vector.40 }
%class.vector.40 = type { ptr }
%class.ref_vector = type { %class.ref_vector_core }
%class.ref_vector_core = type { %class.ref_manager_wrapper, %class.ptr_vector }
%class.ref_manager_wrapper = type { ptr }
%class.svector.29 = type { %class.vector.30 }
%class.vector.30 = type { ptr }
%class.svector.41 = type { %class.vector.42 }
%class.vector.42 = type { ptr }

; Function Attrs: mustprogress nounwind uwtable
define linkonce_odr hidden void @_ZN6vectorIN3smt8qi_queue5entryELb0EjE5resetEv(ptr noundef nonnull align 8 dereferenceable(8) %0) #4 comdat align 2 {
  %2 = alloca ptr, align 8
  store ptr %0, ptr %2, align 8, !tbaa !603
  %3 = load ptr, ptr %2, align 8
  %4 = getelementptr inbounds nuw %class.vector.40, ptr %3, i32 0, i32 0
  %5 = load ptr, ptr %4, align 8, !tbaa !651
  %6 = icmp ne ptr %5, null
  br i1 %6, label %7, label %11

7:                                                ; preds = %1
  %8 = getelementptr inbounds nuw %class.vector.40, ptr %3, i32 0, i32 0
  %9 = load ptr, ptr %8, align 8, !tbaa !651
  %10 = getelementptr inbounds i32, ptr %9, i64 -1
  store i32 0, ptr %10, align 4, !tbaa !8
  br label %11

11:                                               ; preds = %7, %1
  ret void
}

; Function Attrs: mustprogress uwtable
define hidden void @_ZN3smt8qi_queue14init_search_ehEv(ptr noundef nonnull align 8 dereferenceable(1048) %0) #6 align 2 {
  %2 = alloca ptr, align 8
  store ptr %0, ptr %2, align 8, !tbaa !28
  %3 = load ptr, ptr %2, align 8
  %4 = getelementptr inbounds nuw %"class.smt::qi_queue", ptr %3, i32 0, i32 10
  call void @_ZN16cached_var_subst5resetEv(ptr noundef nonnull align 8 dereferenceable(656) %4)
  %5 = getelementptr inbounds nuw %"class.smt::qi_queue", ptr %3, i32 0, i32 13
  call void @_ZN6vectorIN3smt8qi_queue5entryELb0EjE5resetEv(ptr noundef nonnull align 8 dereferenceable(8) %5)
  ret void
}