; Function Attrs: mustprogress uwtable
define hidden void @_ZN3smt8qi_queue14init_search_ehEv(ptr noundef nonnull align 8 dereferenceable(1048) %0) local_unnamed_addr #4 align 2 {
  %2 = getelementptr inbounds nuw i8, ptr %0, i64 328
  tail call void @_ZN16cached_var_subst5resetEv(ptr noundef nonnull align 8 dereferenceable(656) %2)
  %3 = getelementptr inbounds nuw i8, ptr %0, i64 1000
  %4 = load ptr, ptr %3, align 8, !tbaa !567
  %.not.i = icmp eq ptr %4, null
  br i1 %.not.i, label %_ZN6vectorIN3smt8qi_queue5entryELb0EjE5resetEv.exit, label %5

5:                                                ; preds = %1
  %6 = getelementptr inbounds i8, ptr %4, i64 -4
  store i32 0, ptr %6, align 4, !tbaa !555
  br label %_ZN6vectorIN3smt8qi_queue5entryELb0EjE5resetEv.exit

_ZN6vectorIN3smt8qi_queue5entryELb0EjE5resetEv.exit: ; preds = %1, %5
  ret void
}